; Function Attrs: mustprogress nofree norecurse nosync nounwind willreturn memory(argmem: readwrite) uwtable
define void @_ZN5faiss24RangeSearchPartialResultC2EPNS_17RangeSearchResultE(ptr nocapture noundef nonnull writeonly align 8 dereferenceable(72) %0, ptr noundef %1) unnamed_addr #13 align 2 {
  %3 = getelementptr inbounds i8, ptr %1, i64 40
  %4 = load i64, ptr %3, align 8
  store i64 %4, ptr %0, align 8
  %5 = getelementptr inbounds i8, ptr %0, i64 8
  tail call void @llvm.memset.p0.i64(ptr noundef nonnull align 8 dereferenceable(24) %5, i8 0, i64 24, i1 false)
  %6 = getelementptr inbounds i8, ptr %0, i64 32
  store i64 %4, ptr %6, align 8
  %7 = getelementptr inbounds i8, ptr %0, i64 40
  store ptr %1, ptr %7, align 8
  %8 = getelementptr inbounds i8, ptr %0, i64 48
  tail call void @llvm.memset.p0.i64(ptr noundef nonnull align 8 dereferenceable(24) %8, i8 0, i64 24, i1 false)
  ret void
}